; Function Attrs: mustprogress uwtable
define dso_local void @_ZN16cmStateDirectory19ClearCompileOptionsEv(ptr noundef nonnull readonly align 8 captures(none) dereferenceable(40) %0) local_unnamed_addr #6 align 2 {
  %2 = load ptr, ptr %0, align 8, !tbaa !4
  %3 = getelementptr inbounds nuw i8, ptr %0, i64 8
  %4 = load i64, ptr %3, align 8, !tbaa !11
  %5 = load ptr, ptr %2, align 8, !tbaa !12
  %6 = getelementptr %"struct.cmStateDetail::BuildsystemDirectoryStateType", ptr %5, i64 %4
  %7 = getelementptr i8, ptr %6, i64 -232
  %8 = getelementptr inbounds nuw i8, ptr %0, i64 24
  %9 = load ptr, ptr %8, align 8, !tbaa !29
  %10 = getelementptr inbounds nuw i8, ptr %0, i64 32
  %11 = load i64, ptr %10, align 8, !tbaa !31
  %12 = load ptr, ptr %9, align 8, !tbaa !32
  %13 = getelementptr %"struct.cmStateDetail::SnapshotDataType", ptr %12, i64 %11
  %14 = getelementptr i8, ptr %13, i64 -24
  %15 = getelementptr i8, ptr %6, i64 -224
  %16 = load ptr, ptr %15, align 8, !tbaa !53
  %17 = load ptr, ptr %7, align 8, !tbaa !55
  %18 = ptrtoint ptr %16 to i64
  %19 = ptrtoint ptr %17 to i64
  %20 = sub i64 %18, %19
  %21 = sdiv exact i64 %20, 48
  %22 = add nsw i64 %21, 1
  tail call void @_ZNSt6vectorI2BTINSt7__cxx1112basic_stringIcSt11char_traitsIcESaIcEEEESaIS7_EE6resizeEm(ptr noundef nonnull align 8 dereferenceable(24) %7, i64 noundef %22)
  %23 = load ptr, ptr %15, align 8, !tbaa !53
  %24 = load ptr, ptr %7, align 8, !tbaa !55
  %25 = ptrtoint ptr %23 to i64
  %26 = ptrtoint ptr %24 to i64
  %27 = sub i64 %25, %26
  %28 = sdiv exact i64 %27, 48
  store i64 %28, ptr %14, align 8, !tbaa !18
  ret void
}